; Function Attrs: mustprogress uwtable
define dso_local void @_ZN12DFSOutputMgr18OutputStructUnionsERSo(ptr noundef nonnull readonly align 8 captures(none) dereferenceable(40) %0, ptr nonnull readnone align 8 captures(none) %1) unnamed_addr #3 align 2 personality ptr @__gxx_personality_v0 {
  %3 = alloca %"class.std::basic_ofstream", align 8
  call void @llvm.lifetime.start.p0(i64 512, ptr nonnull %3) #13
  %4 = getelementptr inbounds nuw i8, ptr %0, i64 8
  %5 = load ptr, ptr %4, align 8, !tbaa !16
  call void @_ZNSt14basic_ofstreamIcSt11char_traitsIcEEC1EPKcSt13_Ios_Openmode(ptr noundef nonnull align 8 dereferenceable(248) %3, ptr noundef %5, i32 noundef 16)
  invoke void @_Z29OutputStructUnionDeclarationsRSo(ptr noundef nonnull align 8 dereferenceable(8) %3)
          to label %6 unwind label %23

6:                                                ; preds = %2
  %7 = getelementptr inbounds nuw i8, ptr %3, i64 8
  %8 = invoke noundef ptr @_ZNSt13basic_filebufIcSt11char_traitsIcEE5closeEv(ptr noundef nonnull align 8 dereferenceable(240) %7)
          to label %.noexc unwind label %23

.noexc:                                           ; preds = %6
  %.not.i = icmp eq ptr %8, null
  br i1 %.not.i, label %9, label %_ZNSt14basic_ofstreamIcSt11char_traitsIcEE5closeEv.exit

9:                                                ; preds = %.noexc
  %10 = load ptr, ptr %3, align 8, !tbaa !4
  %11 = getelementptr i8, ptr %10, i64 -24
  %12 = load i64, ptr %11, align 8
  %13 = getelementptr inbounds i8, ptr %3, i64 %12
  %14 = getelementptr inbounds nuw i8, ptr %13, i64 32
  %15 = load i32, ptr %14, align 8, !tbaa !19
  %16 = or i32 %15, 4
  invoke void @_ZNSt9basic_iosIcSt11char_traitsIcEE5clearESt12_Ios_Iostate(ptr noundef nonnull align 8 dereferenceable(264) %13, i32 noundef %16)
          to label %_ZNSt14basic_ofstreamIcSt11char_traitsIcEE5closeEv.exit unwind label %23

_ZNSt14basic_ofstreamIcSt11char_traitsIcEE5closeEv.exit: ; preds = %.noexc, %9
  %17 = load ptr, ptr @_ZTTSt14basic_ofstreamIcSt11char_traitsIcEE, align 8
  store ptr %17, ptr %3, align 8, !tbaa !4
  %18 = load ptr, ptr getelementptr inbounds nuw (i8, ptr @_ZTTSt14basic_ofstreamIcSt11char_traitsIcEE, i64 24), align 8
  %19 = getelementptr i8, ptr %17, i64 -24
  %20 = load i64, ptr %19, align 8
  %21 = getelementptr inbounds i8, ptr %3, i64 %20
  store ptr %18, ptr %21, align 8, !tbaa !4
  call void @_ZNSt13basic_filebufIcSt11char_traitsIcEED2Ev(ptr noundef nonnull align 8 dereferenceable(240) %7) #13
  %22 = getelementptr inbounds nuw i8, ptr %3, i64 248
  call void @_ZNSt8ios_baseD2Ev(ptr noundef nonnull align 8 dereferenceable(264) %22) #13
  call void @llvm.lifetime.end.p0(i64 512, ptr nonnull %3) #13
  ret void

23:                                               ; preds = %9, %6, %2
  %24 = landingpad { ptr, i32 }
          cleanup
  call void @_ZNSt14basic_ofstreamIcSt11char_traitsIcEED1Ev(ptr noundef nonnull align 8 dereferenceable(248) %3) #13
  call void @llvm.lifetime.end.p0(i64 512, ptr nonnull %3) #13
  resume { ptr, i32 } %24
}